target datalayout = "e-m:e-p270:32:32-p271:32:32-p272:64:64-i64:64-i128:128-f80:128-n8:16:32:64-S128"
target triple = "x86_64-pc-linux-gnu"

%struct.AVFilterContext = type { ptr, ptr, ptr, ptr, ptr, i32, ptr, ptr, i32, ptr, ptr, i32, i32, ptr, ptr, ptr, ptr, i32, ptr, i32, i32 }
%struct.VAAPIVPPContext = type { ptr, ptr, ptr, i32, i32, i32, ptr, ptr, %struct._VARectangle, i32, i32, i32, [10 x i32], i32, i32, ptr, ptr }
%struct._VARectangle = type { i16, i16, i16, i16 }
%struct.DenoiseVAAPIContext = type { %struct.VAAPIVPPContext, i32 }

; Function Attrs: cold nounwind optsize uwtable
define internal i32 @denoise_vaapi_init(ptr noundef %0) #0 {
  %2 = alloca ptr, align 8
  %3 = alloca ptr, align 8
  %4 = alloca ptr, align 8
  store ptr %0, ptr %2, align 8, !tbaa !4
  call void @llvm.lifetime.start.p0(i64 8, ptr %3) #5
  %5 = load ptr, ptr %2, align 8, !tbaa !4
  %6 = getelementptr inbounds nuw %struct.AVFilterContext, ptr %5, i32 0, i32 9
  %7 = load ptr, ptr %6, align 8, !tbaa !9
  store ptr %7, ptr %3, align 8, !tbaa !22
  call void @llvm.lifetime.start.p0(i64 8, ptr %4) #5
  %8 = load ptr, ptr %2, align 8, !tbaa !4
  %9 = getelementptr inbounds nuw %struct.AVFilterContext, ptr %8, i32 0, i32 9
  %10 = load ptr, ptr %9, align 8, !tbaa !9
  store ptr %10, ptr %4, align 8, !tbaa !24
  %11 = load ptr, ptr %2, align 8, !tbaa !4
  call void @ff_vaapi_vpp_ctx_init(ptr noundef %11)
  %12 = load ptr, ptr %3, align 8, !tbaa !22
  %13 = getelementptr inbounds nuw %struct.VAAPIVPPContext, ptr %12, i32 0, i32 16
  store ptr @ff_vaapi_vpp_pipeline_uninit, ptr %13, align 8, !tbaa !26
  %14 = load ptr, ptr %3, align 8, !tbaa !22
  %15 = getelementptr inbounds nuw %struct.VAAPIVPPContext, ptr %14, i32 0, i32 15
  store ptr @denoise_vaapi_build_filter_params, ptr %15, align 8, !tbaa !32
  %16 = load ptr, ptr %3, align 8, !tbaa !22
  %17 = getelementptr inbounds nuw %struct.VAAPIVPPContext, ptr %16, i32 0, i32 9
  store i32 -1, ptr %17, align 8, !tbaa !33
  %18 = load ptr, ptr %4, align 8, !tbaa !24
  %19 = getelementptr inbounds nuw %struct.DenoiseVAAPIContext, ptr %18, i32 0, i32 1
  %20 = load i32, ptr %19, align 8, !tbaa !34
  %21 = icmp eq i32 %20, 0
  br i1 %21, label %22, label %25

22:                                               ; preds = %1
  %23 = load ptr, ptr %3, align 8, !tbaa !22
  %24 = getelementptr inbounds nuw %struct.VAAPIVPPContext, ptr %23, i32 0, i32 14
  store i32 1, ptr %24, align 8, !tbaa !36
  br label %25

25:                                               ; preds = %22, %1
  call void @llvm.lifetime.end.p0(i64 8, ptr %4) #5
  call void @llvm.lifetime.end.p0(i64 8, ptr %3) #5
  ret i32 0
}